; Function Attrs: mustprogress nofree nounwind willreturn memory(read, inaccessiblemem: none) uwtable
define dso_local range(i32 0, 2) i32 @_PyUnicode_EqualToASCIIString(ptr noundef readonly captures(none) %0, ptr noundef readonly captures(none) %1) local_unnamed_addr #22 {
  %3 = getelementptr i8, ptr %0, i64 34
  %.val = load i16, ptr %3, align 2
  %4 = and i16 %.val, 16
  %.not = icmp eq i16 %4, 0
  br i1 %.not, label %16, label %5

5:                                                ; preds = %2
  %6 = getelementptr i8, ptr %0, i64 16
  %.val8 = load i64, ptr %6, align 8, !tbaa !197
  %7 = tail call i64 @strlen(ptr noundef nonnull dereferenceable(1) %1) #42
  %8 = icmp eq i64 %7, %.val8
  br i1 %8, label %9, label %16

9:                                                ; preds = %5
  %10 = and i16 %.val, 8
  %.not.i = icmp eq i16 %10, 0
  br i1 %.not.i, label %12, label %11

11:                                               ; preds = %9
  %.0.i.i = getelementptr i8, ptr %0, i64 40
  br label %_PyUnicode_DATA.exit

12:                                               ; preds = %9
  %13 = getelementptr i8, ptr %0, i64 56
  %.val4.i = load ptr, ptr %13, align 8, !tbaa !195
  br label %_PyUnicode_DATA.exit

_PyUnicode_DATA.exit:                             ; preds = %11, %12
  %.0.i = phi ptr [ %.0.i.i, %11 ], [ %.val4.i, %12 ]
  %bcmp = tail call i32 @bcmp(ptr %.0.i, ptr nonnull %1, i64 %.val8)
  %14 = icmp eq i32 %bcmp, 0
  %15 = zext i1 %14 to i32
  br label %16

16:                                               ; preds = %5, %_PyUnicode_DATA.exit, %2
  %.0 = phi i32 [ 0, %2 ], [ 0, %5 ], [ %15, %_PyUnicode_DATA.exit ]
  ret i32 %.0
}